target datalayout = "e-m:e-p270:32:32-p271:32:32-p272:64:64-i64:64-i128:128-f80:128-n8:16:32:64-S128"
target triple = "x86_64-unknown-linux-gnu"

%"struct.btGImpactCollisionAlgorithm::CreateFunc" = type { %struct.btCollisionAlgorithmCreateFunc.base, [7 x i8] }
%struct.btCollisionAlgorithmCreateFunc.base = type <{ ptr, i8 }>
%struct.btCollisionAlgorithmCreateFunc = type <{ ptr, i8, [7 x i8] }>

@_ZZN27btGImpactCollisionAlgorithm17registerAlgorithmEP21btCollisionDispatcherE12s_gimpact_cf = internal global %"struct.btGImpactCollisionAlgorithm::CreateFunc" zeroinitializer, align 8
@_ZGVZN27btGImpactCollisionAlgorithm17registerAlgorithmEP21btCollisionDispatcherE12s_gimpact_cf = internal global i64 0, align 8
@__dso_handle = external hidden global i8

; Function Attrs: mustprogress nounwind uwtable
define linkonce_odr dso_local void @_ZN30btCollisionAlgorithmCreateFuncC2Ev(ptr noundef nonnull align 8 dereferenceable(9) %this) unnamed_addr #1 comdat align 2 {
entry:
  %this.addr = alloca ptr, align 8
  store ptr %this, ptr %this.addr, align 8
  %this1 = load ptr, ptr %this.addr, align 8
  store ptr getelementptr inbounds ({ [5 x ptr] }, ptr @_ZTV30btCollisionAlgorithmCreateFunc, i32 0, i32 0, i32 2), ptr %this1, align 8
  %m_swapped = getelementptr inbounds %struct.btCollisionAlgorithmCreateFunc, ptr %this1, i32 0, i32 1
  store i8 0, ptr %m_swapped, align 8
  ret void
}

; Function Attrs: mustprogress uwtable
define linkonce_odr dso_local void @_ZN27btGImpactCollisionAlgorithm10CreateFuncC2Ev(ptr noundef nonnull align 8 dereferenceable(9) %this) unnamed_addr #2 comdat align 2 {
entry:
  %this.addr = alloca ptr, align 8
  store ptr %this, ptr %this.addr, align 8
  %this1 = load ptr, ptr %this.addr, align 8
  call void @_ZN30btCollisionAlgorithmCreateFuncC2Ev(ptr noundef nonnull align 8 dereferenceable(9) %this1)
  store ptr getelementptr inbounds ({ [5 x ptr] }, ptr @_ZTVN27btGImpactCollisionAlgorithm10CreateFuncE, i32 0, i32 0, i32 2), ptr %this1, align 8
  ret void
}

; Function Attrs: mustprogress uwtable
define dso_local void @_ZN27btGImpactCollisionAlgorithm17registerAlgorithmEP21btCollisionDispatcher(ptr noundef %dispatcher) #2 align 2 personality ptr @__gxx_personality_v0 {
entry:
  %dispatcher.addr = alloca ptr, align 8
  %exn.slot = alloca ptr, align 8
  %ehselector.slot = alloca i32, align 4
  %i = alloca i32, align 4
  store ptr %dispatcher, ptr %dispatcher.addr, align 8
  %0 = load atomic i8, ptr @_ZGVZN27btGImpactCollisionAlgorithm17registerAlgorithmEP21btCollisionDispatcherE12s_gimpact_cf acquire, align 8
  %guard.uninitialized = icmp eq i8 %0, 0
  br i1 %guard.uninitialized, label %init.check, label %init.end, !prof !19

init.check:                                       ; preds = %entry
  %1 = call i32 @__cxa_guard_acquire(ptr @_ZGVZN27btGImpactCollisionAlgorithm17registerAlgorithmEP21btCollisionDispatcherE12s_gimpact_cf) #9
  %tobool = icmp ne i32 %1, 0
  br i1 %tobool, label %init, label %init.end

init:                                             ; preds = %init.check
  invoke void @_ZN27btGImpactCollisionAlgorithm10CreateFuncC2Ev(ptr noundef nonnull align 8 dereferenceable(9) @_ZZN27btGImpactCollisionAlgorithm17registerAlgorithmEP21btCollisionDispatcherE12s_gimpact_cf)
          to label %invoke.cont unwind label %lpad

invoke.cont:                                      ; preds = %init
  %2 = call i32 @__cxa_atexit(ptr @_ZN27btGImpactCollisionAlgorithm10CreateFuncD2Ev, ptr @_ZZN27btGImpactCollisionAlgorithm17registerAlgorithmEP21btCollisionDispatcherE12s_gimpact_cf, ptr @__dso_handle) #9
  call void @__cxa_guard_release(ptr @_ZGVZN27btGImpactCollisionAlgorithm17registerAlgorithmEP21btCollisionDispatcherE12s_gimpact_cf) #9
  br label %init.end

init.end:                                         ; preds = %invoke.cont, %init.check, %entry
  store i32 0, ptr %i, align 4
  br label %for.cond

for.cond:                                         ; preds = %for.inc, %init.end
  %3 = load i32, ptr %i, align 4
  %cmp = icmp slt i32 %3, 36
  br i1 %cmp, label %for.body, label %for.end

for.body:                                         ; preds = %for.cond
  %4 = load ptr, ptr %dispatcher.addr, align 8
  %5 = load i32, ptr %i, align 4
  call void @_ZN21btCollisionDispatcher27registerCollisionCreateFuncEiiP30btCollisionAlgorithmCreateFunc(ptr noundef nonnull align 8 dereferenceable(20816) %4, i32 noundef 25, i32 noundef %5, ptr noundef @_ZZN27btGImpactCollisionAlgorithm17registerAlgorithmEP21btCollisionDispatcherE12s_gimpact_cf)
  br label %for.inc

for.inc:                                          ; preds = %for.body
  %6 = load i32, ptr %i, align 4
  %inc = add nsw i32 %6, 1
  store i32 %inc, ptr %i, align 4
  br label %for.cond, !llvm.loop !20

lpad:                                             ; preds = %init
  %7 = landingpad { ptr, i32 }
          cleanup
  %8 = extractvalue { ptr, i32 } %7, 0
  store ptr %8, ptr %exn.slot, align 8
  %9 = extractvalue { ptr, i32 } %7, 1
  store i32 %9, ptr %ehselector.slot, align 4
  call void @__cxa_guard_abort(ptr @_ZGVZN27btGImpactCollisionAlgorithm17registerAlgorithmEP21btCollisionDispatcherE12s_gimpact_cf) #9
  br label %eh.resume

for.end:                                          ; preds = %for.cond
  store i32 0, ptr %i, align 4
  br label %for.cond1

for.cond1:                                        ; preds = %for.inc4, %for.end
  %10 = load i32, ptr %i, align 4
  %cmp2 = icmp slt i32 %10, 36
  br i1 %cmp2, label %for.body3, label %for.end6

for.body3:                                        ; preds = %for.cond1
  %11 = load ptr, ptr %dispatcher.addr, align 8
  %12 = load i32, ptr %i, align 4
  call void @_ZN21btCollisionDispatcher27registerCollisionCreateFuncEiiP30btCollisionAlgorithmCreateFunc(ptr noundef nonnull align 8 dereferenceable(20816) %11, i32 noundef %12, i32 noundef 25, ptr noundef @_ZZN27btGImpactCollisionAlgorithm17registerAlgorithmEP21btCollisionDispatcherE12s_gimpact_cf)
  br label %for.inc4

for.inc4:                                         ; preds = %for.body3
  %13 = load i32, ptr %i, align 4
  %inc5 = add nsw i32 %13, 1
  store i32 %inc5, ptr %i, align 4
  br label %for.cond1, !llvm.loop !21

for.end6:                                         ; preds = %for.cond1
  ret void

eh.resume:                                        ; preds = %lpad
  %exn = load ptr, ptr %exn.slot, align 8
  %sel = load i32, ptr %ehselector.slot, align 4
  %lpad.val = insertvalue { ptr, i32 } poison, ptr %exn, 0
  %lpad.val7 = insertvalue { ptr, i32 } %lpad.val, i32 %sel, 1
  resume { ptr, i32 } %lpad.val7
}