; Function Attrs: mustprogress uwtable
define dso_local void @_ZN27btGImpactCollisionAlgorithm17registerAlgorithmEP21btCollisionDispatcher(ptr noundef %dispatcher) local_unnamed_addr #0 align 2 personality ptr @__gxx_personality_v0 {
entry:
  %0 = load atomic i8, ptr @_ZGVZN27btGImpactCollisionAlgorithm17registerAlgorithmEP21btCollisionDispatcherE12s_gimpact_cf acquire, align 8
  %guard.uninitialized = icmp eq i8 %0, 0
  br i1 %guard.uninitialized, label %init.check, label %for.body.preheader, !prof !57

init.check:                                       ; preds = %entry
  %1 = tail call i32 @__cxa_guard_acquire(ptr nonnull @_ZGVZN27btGImpactCollisionAlgorithm17registerAlgorithmEP21btCollisionDispatcherE12s_gimpact_cf) #14
  %tobool.not = icmp eq i32 %1, 0
  br i1 %tobool.not, label %for.body.preheader, label %invoke.cont

invoke.cont:                                      ; preds = %init.check
  store i8 0, ptr getelementptr inbounds (%"struct.btGImpactCollisionAlgorithm::CreateFunc", ptr @_ZZN27btGImpactCollisionAlgorithm17registerAlgorithmEP21btCollisionDispatcherE12s_gimpact_cf, i64 0, i32 0, i32 1), align 8
  store ptr getelementptr inbounds ({ [5 x ptr] }, ptr @_ZTVN27btGImpactCollisionAlgorithm10CreateFuncE, i64 0, i32 0, i64 2), ptr @_ZZN27btGImpactCollisionAlgorithm17registerAlgorithmEP21btCollisionDispatcherE12s_gimpact_cf, align 8
  tail call void @__cxa_guard_release(ptr nonnull @_ZGVZN27btGImpactCollisionAlgorithm17registerAlgorithmEP21btCollisionDispatcherE12s_gimpact_cf) #14
  br label %for.body.preheader

for.body.preheader:                               ; preds = %invoke.cont, %init.check, %entry
  br label %for.body

for.body:                                         ; preds = %for.body.preheader, %for.body
  %i.07 = phi i32 [ %inc, %for.body ], [ 0, %for.body.preheader ]
  tail call void @_ZN21btCollisionDispatcher27registerCollisionCreateFuncEiiP30btCollisionAlgorithmCreateFunc(ptr noundef nonnull align 8 dereferenceable(20816) %dispatcher, i32 noundef 25, i32 noundef %i.07, ptr noundef nonnull @_ZZN27btGImpactCollisionAlgorithm17registerAlgorithmEP21btCollisionDispatcherE12s_gimpact_cf)
  %inc = add nuw nsw i32 %i.07, 1
  %exitcond.not = icmp eq i32 %inc, 36
  br i1 %exitcond.not, label %for.body3, label %for.body, !llvm.loop !58

for.body3:                                        ; preds = %for.body, %for.body3
  %i.18 = phi i32 [ %inc5, %for.body3 ], [ 0, %for.body ]
  tail call void @_ZN21btCollisionDispatcher27registerCollisionCreateFuncEiiP30btCollisionAlgorithmCreateFunc(ptr noundef nonnull align 8 dereferenceable(20816) %dispatcher, i32 noundef %i.18, i32 noundef 25, ptr noundef nonnull @_ZZN27btGImpactCollisionAlgorithm17registerAlgorithmEP21btCollisionDispatcherE12s_gimpact_cf)
  %inc5 = add nuw nsw i32 %i.18, 1
  %exitcond9.not = icmp eq i32 %inc5, 36
  br i1 %exitcond9.not, label %for.end6, label %for.body3, !llvm.loop !59

for.end6:                                         ; preds = %for.body3
  ret void
}